(dp0
S'info'
p1
(I100
I200
I300
I400
I500
S'Python'
p2
S'Javascript'
p3
S'C'
p4
S'Java'
p5
I01
I00
Ntp6
sI100
I10000
sS'name'
p7
S'Einstein'
p8
sS'data'
p9
(lp10
I100
aI200
aI300
aI400
aI500
ag2
ag3
ag4
ag5
aI01
aI00
aNasS'number'
p11
I10000
sS'oldstyleclass'
p12
c__main__
Python
p13
sS'newstyleclass'
p14
c__main__
Me
p15
sS'currtime'
p16
cdatetime
datetime
p17
(S'\x07\xe1\x02\x19\x15/8\x05\x86\x10'
p18
tp19
Rp20
sS'type'
p21
I01
sS'more'
p22
(lp23
F100.12
aF700.9
aF800.22
aF900.2
aF300.6
aI1000
aI789
aI679
aI27
aS'21N'
p24
as.